target datalayout = "e-m:e-p270:32:32-p271:32:32-p272:64:64-i64:64-i128:128-f80:128-n8:16:32:64-S128"
target triple = "x86_64-pc-linux-gnu"

%struct.msghdr = type { ptr, i32, ptr, i64, ptr, i64, i32 }
%struct.timespec = type { i64, i64 }
%struct.cmsghdr = type { i64, i32, i32, [0 x i8] }
%"struct.std::array" = type { [3 x %struct.timespec] }
%"struct.folly::AsyncUDPSocket::ReadCallback::OnDataAvailableParams" = type <{ i32, [4 x i8], %"class.folly::Optional", i8, [7 x i8] }>
%"class.folly::Optional" = type { %"struct.folly::Optional<std::array<timespec, 3>>::StorageTriviallyDestructible" }
%"struct.folly::Optional<std::array<timespec, 3>>::StorageTriviallyDestructible" = type <{ %union.anon.0, i8, [7 x i8] }>
%union.anon.0 = type { %"struct.std::array" }

; Function Attrs: mustprogress nounwind uwtable
define linkonce_odr noundef zeroext i1 @_ZNK5folly8OptionalISt5arrayI8timespecLm3EEE9has_valueEv(ptr noundef nonnull align 8 dereferenceable(56) %0) #0 comdat align 2 {
  %2 = alloca ptr, align 8
  store ptr %0, ptr %2, align 8, !tbaa !193
  %3 = load ptr, ptr %2, align 8
  %4 = getelementptr inbounds nuw %"class.folly::Optional", ptr %3, i32 0, i32 0
  %5 = getelementptr inbounds nuw %"struct.folly::Optional<std::array<timespec, 3>>::StorageTriviallyDestructible", ptr %4, i32 0, i32 1
  %6 = load i8, ptr %5, align 8, !tbaa !199, !range !114, !noundef !115
  %7 = trunc i8 %6 to i1
  ret i1 %7
}

; Function Attrs: mustprogress nounwind uwtable
define linkonce_odr void @_ZN5folly8OptionalISt5arrayI8timespecLm3EEE9constructIJRKS3_EEEvDpOT_(ptr noundef nonnull align 8 dereferenceable(56) %0, ptr noundef nonnull align 8 dereferenceable(48) %1) #0 comdat align 2 {
  %3 = alloca ptr, align 8
  %4 = alloca ptr, align 8
  %5 = alloca ptr, align 8
  store ptr %0, ptr %3, align 8, !tbaa !193
  store ptr %1, ptr %4, align 8, !tbaa !195
  %6 = load ptr, ptr %3, align 8
  call void @llvm.lifetime.start.p0(i64 8, ptr %5) #25
  %7 = getelementptr inbounds nuw %"class.folly::Optional", ptr %6, i32 0, i32 0
  %8 = getelementptr inbounds nuw %"struct.folly::Optional<std::array<timespec, 3>>::StorageTriviallyDestructible", ptr %7, i32 0, i32 0
  store ptr %8, ptr %5, align 8, !tbaa !198
  %9 = load ptr, ptr %5, align 8, !tbaa !198
  %10 = load ptr, ptr %4, align 8, !tbaa !195
  call void @llvm.memcpy.p0.p0.i64(ptr align 8 %9, ptr align 8 %10, i64 48, i1 false), !tbaa.struct !197
  %11 = getelementptr inbounds nuw %"class.folly::Optional", ptr %6, i32 0, i32 0
  %12 = getelementptr inbounds nuw %"struct.folly::Optional<std::array<timespec, 3>>::StorageTriviallyDestructible", ptr %11, i32 0, i32 1
  store i8 1, ptr %12, align 8, !tbaa !199
  call void @llvm.lifetime.end.p0(i64 8, ptr %5) #25
  ret void
}

; Function Attrs: mustprogress nounwind uwtable
define linkonce_odr noundef zeroext i1 @_ZNK5folly8OptionalISt5arrayI8timespecLm3EEE8hasValueEv(ptr noundef nonnull align 8 dereferenceable(56) %0) #0 comdat align 2 {
  %2 = alloca ptr, align 8
  store ptr %0, ptr %2, align 8, !tbaa !193
  %3 = load ptr, ptr %2, align 8
  %4 = call noundef zeroext i1 @_ZNK5folly8OptionalISt5arrayI8timespecLm3EEE9has_valueEv(ptr noundef nonnull align 8 dereferenceable(56) %3) #25
  ret i1 %4
}

; Function Attrs: mustprogress uwtable
define linkonce_odr void @_ZN5folly8OptionalISt5arrayI8timespecLm3EEE6assignERKS3_(ptr noundef nonnull align 8 dereferenceable(56) %0, ptr noundef nonnull align 8 dereferenceable(48) %1) #1 comdat align 2 {
  %3 = alloca ptr, align 8
  %4 = alloca ptr, align 8
  store ptr %0, ptr %3, align 8, !tbaa !193
  store ptr %1, ptr %4, align 8, !tbaa !195
  %5 = load ptr, ptr %3, align 8
  %6 = call noundef zeroext i1 @_ZNK5folly8OptionalISt5arrayI8timespecLm3EEE8hasValueEv(ptr noundef nonnull align 8 dereferenceable(56) %5) #25
  br i1 %6, label %7, label %11

7:                                                ; preds = %2
  %8 = load ptr, ptr %4, align 8, !tbaa !195
  %9 = getelementptr inbounds nuw %"class.folly::Optional", ptr %5, i32 0, i32 0
  %10 = getelementptr inbounds nuw %"struct.folly::Optional<std::array<timespec, 3>>::StorageTriviallyDestructible", ptr %9, i32 0, i32 0
  call void @llvm.memcpy.p0.p0.i64(ptr align 8 %10, ptr align 8 %8, i64 48, i1 false), !tbaa.struct !197
  br label %13

11:                                               ; preds = %2
  %12 = load ptr, ptr %4, align 8, !tbaa !195
  call void @_ZN5folly8OptionalISt5arrayI8timespecLm3EEE9constructIJRKS3_EEEvDpOT_(ptr noundef nonnull align 8 dereferenceable(56) %5, ptr noundef nonnull align 8 dereferenceable(48) %12)
  br label %13

13:                                               ; preds = %11, %7
  ret void
}

; Function Attrs: inlinehint mustprogress nounwind uwtable
define available_externally ptr @__cmsg_nxthdr(ptr noundef %0, ptr noundef %1) #4 {
  %3 = alloca ptr, align 8
  %4 = alloca ptr, align 8
  %5 = alloca ptr, align 8
  store ptr %0, ptr %4, align 8, !tbaa !142
  store ptr %1, ptr %5, align 8, !tbaa !124
  %6 = load ptr, ptr %5, align 8, !tbaa !124
  %7 = getelementptr inbounds nuw %struct.cmsghdr, ptr %6, i32 0, i32 0
  %8 = load i64, ptr %7, align 8, !tbaa !98
  %9 = icmp ult i64 %8, 16
  br i1 %9, label %10, label %11

10:                                               ; preds = %2
  store ptr null, ptr %3, align 8
  br label %50

11:                                               ; preds = %2
  %12 = load ptr, ptr %5, align 8, !tbaa !124
  %13 = load ptr, ptr %5, align 8, !tbaa !124
  %14 = getelementptr inbounds nuw %struct.cmsghdr, ptr %13, i32 0, i32 0
  %15 = load i64, ptr %14, align 8, !tbaa !98
  %16 = add i64 %15, 8
  %17 = sub i64 %16, 1
  %18 = and i64 %17, -8
  %19 = getelementptr inbounds nuw i8, ptr %12, i64 %18
  store ptr %19, ptr %5, align 8, !tbaa !124
  %20 = load ptr, ptr %5, align 8, !tbaa !124
  %21 = getelementptr inbounds %struct.cmsghdr, ptr %20, i64 1
  %22 = load ptr, ptr %4, align 8, !tbaa !142
  %23 = getelementptr inbounds nuw %struct.msghdr, ptr %22, i32 0, i32 4
  %24 = load ptr, ptr %23, align 8, !tbaa !121
  %25 = load ptr, ptr %4, align 8, !tbaa !142
  %26 = getelementptr inbounds nuw %struct.msghdr, ptr %25, i32 0, i32 5
  %27 = load i64, ptr %26, align 8, !tbaa !122
  %28 = getelementptr inbounds nuw i8, ptr %24, i64 %27
  %29 = icmp ugt ptr %21, %28
  br i1 %29, label %47, label %30

30:                                               ; preds = %11
  %31 = load ptr, ptr %5, align 8, !tbaa !124
  %32 = load ptr, ptr %5, align 8, !tbaa !124
  %33 = getelementptr inbounds nuw %struct.cmsghdr, ptr %32, i32 0, i32 0
  %34 = load i64, ptr %33, align 8, !tbaa !98
  %35 = add i64 %34, 8
  %36 = sub i64 %35, 1
  %37 = and i64 %36, -8
  %38 = getelementptr inbounds nuw i8, ptr %31, i64 %37
  %39 = load ptr, ptr %4, align 8, !tbaa !142
  %40 = getelementptr inbounds nuw %struct.msghdr, ptr %39, i32 0, i32 4
  %41 = load ptr, ptr %40, align 8, !tbaa !121
  %42 = load ptr, ptr %4, align 8, !tbaa !142
  %43 = getelementptr inbounds nuw %struct.msghdr, ptr %42, i32 0, i32 5
  %44 = load i64, ptr %43, align 8, !tbaa !122
  %45 = getelementptr inbounds nuw i8, ptr %41, i64 %44
  %46 = icmp ugt ptr %38, %45
  br i1 %46, label %47, label %48

47:                                               ; preds = %30, %11
  store ptr null, ptr %3, align 8
  br label %50

48:                                               ; preds = %30
  %49 = load ptr, ptr %5, align 8, !tbaa !124
  store ptr %49, ptr %3, align 8
  br label %50

50:                                               ; preds = %48, %47, %10
  %51 = load ptr, ptr %3, align 8
  ret ptr %51
}

; Function Attrs: mustprogress uwtable
define linkonce_odr noundef nonnull align 8 dereferenceable(56) ptr @_ZN5folly8OptionalISt5arrayI8timespecLm3EEEaSIRS3_EERS4_OT_(ptr noundef nonnull align 8 dereferenceable(56) %0, ptr noundef nonnull align 8 dereferenceable(48) %1) #1 comdat align 2 {
  %3 = alloca ptr, align 8
  %4 = alloca ptr, align 8
  store ptr %0, ptr %3, align 8, !tbaa !193
  store ptr %1, ptr %4, align 8, !tbaa !195
  %5 = load ptr, ptr %3, align 8
  %6 = load ptr, ptr %4, align 8, !tbaa !195
  call void @_ZN5folly8OptionalISt5arrayI8timespecLm3EEE6assignERKS3_(ptr noundef nonnull align 8 dereferenceable(56) %5, ptr noundef nonnull align 8 dereferenceable(48) %6)
  ret ptr %5
}

; Function Attrs: mustprogress uwtable
define void @_ZN5folly14AsyncUDPSocket7fromMsgERNS0_12ReadCallback21OnDataAvailableParamsER6msghdr(ptr noundef nonnull align 8 dereferenceable(65) %0, ptr noundef nonnull align 8 dereferenceable(56) %1) #1 align 2 {
  %3 = alloca ptr, align 8
  %4 = alloca ptr, align 8
  %5 = alloca ptr, align 8
  %6 = alloca ptr, align 8
  %7 = alloca %"struct.std::array", align 8
  store ptr %0, ptr %3, align 8, !tbaa !182
  store ptr %1, ptr %4, align 8, !tbaa !142
  call void @llvm.lifetime.start.p0(i64 8, ptr %5) #25
  call void @llvm.lifetime.start.p0(i64 8, ptr %6) #25
  %8 = load ptr, ptr %4, align 8, !tbaa !142
  %9 = getelementptr inbounds nuw %struct.msghdr, ptr %8, i32 0, i32 5
  %10 = load i64, ptr %9, align 8, !tbaa !122
  %11 = icmp uge i64 %10, 16
  br i1 %11, label %12, label %16

12:                                               ; preds = %2
  %13 = load ptr, ptr %4, align 8, !tbaa !142
  %14 = getelementptr inbounds nuw %struct.msghdr, ptr %13, i32 0, i32 4
  %15 = load ptr, ptr %14, align 8, !tbaa !121
  br label %17

16:                                               ; preds = %2
  br label %17

17:                                               ; preds = %16, %12
  %18 = phi ptr [ %15, %12 ], [ null, %16 ]
  store ptr %18, ptr %5, align 8, !tbaa !124
  br label %19

19:                                               ; preds = %95, %17
  %20 = load ptr, ptr %5, align 8, !tbaa !124
  %21 = icmp ne ptr %20, null
  br i1 %21, label %22, label %99

22:                                               ; preds = %19
  %23 = load ptr, ptr %5, align 8, !tbaa !124
  %24 = getelementptr inbounds nuw %struct.cmsghdr, ptr %23, i32 0, i32 1
  %25 = load i32, ptr %24, align 8, !tbaa !74
  %26 = icmp eq i32 %25, 17
  br i1 %26, label %27, label %42

27:                                               ; preds = %22
  %28 = load ptr, ptr %5, align 8, !tbaa !124
  %29 = getelementptr inbounds nuw %struct.cmsghdr, ptr %28, i32 0, i32 2
  %30 = load i32, ptr %29, align 4, !tbaa !74
  %31 = icmp eq i32 %30, 104
  br i1 %31, label %32, label %41

32:                                               ; preds = %27
  %33 = load ptr, ptr %5, align 8, !tbaa !124
  %34 = getelementptr inbounds nuw %struct.cmsghdr, ptr %33, i32 0, i32 3
  %35 = getelementptr inbounds [0 x i8], ptr %34, i64 0, i64 0
  store ptr %35, ptr %6, align 8, !tbaa !184
  %36 = load ptr, ptr %6, align 8, !tbaa !184
  %37 = load i16, ptr %36, align 2, !tbaa !12
  %38 = zext i16 %37 to i32
  %39 = load ptr, ptr %3, align 8, !tbaa !182
  %40 = getelementptr inbounds nuw %"struct.folly::AsyncUDPSocket::ReadCallback::OnDataAvailableParams", ptr %39, i32 0, i32 0
  store i32 %38, ptr %40, align 8, !tbaa !186
  br label %41

41:                                               ; preds = %32, %27
  br label %94

42:                                               ; preds = %22
  %43 = load ptr, ptr %5, align 8, !tbaa !124
  %44 = getelementptr inbounds nuw %struct.cmsghdr, ptr %43, i32 0, i32 1
  %45 = load i32, ptr %44, align 8, !tbaa !74
  %46 = icmp eq i32 %45, 1
  br i1 %46, label %47, label %65

47:                                               ; preds = %42
  %48 = load ptr, ptr %5, align 8, !tbaa !124
  %49 = getelementptr inbounds nuw %struct.cmsghdr, ptr %48, i32 0, i32 2
  %50 = load i32, ptr %49, align 4, !tbaa !74
  %51 = icmp eq i32 %50, 37
  br i1 %51, label %57, label %52

52:                                               ; preds = %47
  %53 = load ptr, ptr %5, align 8, !tbaa !124
  %54 = getelementptr inbounds nuw %struct.cmsghdr, ptr %53, i32 0, i32 2
  %55 = load i32, ptr %54, align 4, !tbaa !74
  %56 = icmp eq i32 %55, 35
  br i1 %56, label %57, label %64

57:                                               ; preds = %52, %47
  call void @llvm.lifetime.start.p0(i64 48, ptr %7) #25
  %58 = load ptr, ptr %5, align 8, !tbaa !124
  %59 = getelementptr inbounds nuw %struct.cmsghdr, ptr %58, i32 0, i32 3
  %60 = getelementptr inbounds [0 x i8], ptr %59, i64 0, i64 0
  call void @llvm.memcpy.p0.p0.i64(ptr align 8 %7, ptr align 8 %60, i64 48, i1 false)
  %61 = load ptr, ptr %3, align 8, !tbaa !182
  %62 = getelementptr inbounds nuw %"struct.folly::AsyncUDPSocket::ReadCallback::OnDataAvailableParams", ptr %61, i32 0, i32 2
  %63 = call noundef nonnull align 8 dereferenceable(56) ptr @_ZN5folly8OptionalISt5arrayI8timespecLm3EEEaSIRS3_EERS4_OT_(ptr noundef nonnull align 8 dereferenceable(56) %62, ptr noundef nonnull align 8 dereferenceable(48) %7)
  call void @llvm.lifetime.end.p0(i64 48, ptr %7) #25
  br label %64

64:                                               ; preds = %57, %52
  br label %93

65:                                               ; preds = %42
  %66 = load ptr, ptr %5, align 8, !tbaa !124
  %67 = getelementptr inbounds nuw %struct.cmsghdr, ptr %66, i32 0, i32 1
  %68 = load i32, ptr %67, align 8, !tbaa !74
  %69 = icmp eq i32 %68, 0
  br i1 %69, label %70, label %75

70:                                               ; preds = %65
  %71 = load ptr, ptr %5, align 8, !tbaa !124
  %72 = getelementptr inbounds nuw %struct.cmsghdr, ptr %71, i32 0, i32 2
  %73 = load i32, ptr %72, align 4, !tbaa !74
  %74 = icmp eq i32 %73, 1
  br i1 %74, label %85, label %75

75:                                               ; preds = %70, %65
  %76 = load ptr, ptr %5, align 8, !tbaa !124
  %77 = getelementptr inbounds nuw %struct.cmsghdr, ptr %76, i32 0, i32 1
  %78 = load i32, ptr %77, align 8, !tbaa !74
  %79 = icmp eq i32 %78, 41
  br i1 %79, label %80, label %92

80:                                               ; preds = %75
  %81 = load ptr, ptr %5, align 8, !tbaa !124
  %82 = getelementptr inbounds nuw %struct.cmsghdr, ptr %81, i32 0, i32 2
  %83 = load i32, ptr %82, align 4, !tbaa !74
  %84 = icmp eq i32 %83, 67
  br i1 %84, label %85, label %92

85:                                               ; preds = %80, %70
  %86 = load ptr, ptr %5, align 8, !tbaa !124
  %87 = getelementptr inbounds nuw %struct.cmsghdr, ptr %86, i32 0, i32 3
  %88 = getelementptr inbounds [0 x i8], ptr %87, i64 0, i64 0
  %89 = load i8, ptr %88, align 8, !tbaa !190
  %90 = load ptr, ptr %3, align 8, !tbaa !182
  %91 = getelementptr inbounds nuw %"struct.folly::AsyncUDPSocket::ReadCallback::OnDataAvailableParams", ptr %90, i32 0, i32 3
  store i8 %89, ptr %91, align 8, !tbaa !191
  br label %92

92:                                               ; preds = %85, %80, %75
  br label %93

93:                                               ; preds = %92, %64
  br label %94

94:                                               ; preds = %93, %41
  br label %95

95:                                               ; preds = %94
  %96 = load ptr, ptr %4, align 8, !tbaa !142
  %97 = load ptr, ptr %5, align 8, !tbaa !124
  %98 = call ptr @__cmsg_nxthdr(ptr noundef %96, ptr noundef %97) #25
  store ptr %98, ptr %5, align 8, !tbaa !124
  br label %19, !llvm.loop !192

99:                                               ; preds = %19
  call void @llvm.lifetime.end.p0(i64 8, ptr %6) #25
  call void @llvm.lifetime.end.p0(i64 8, ptr %5) #25
  ret void
}