; Function Attrs: mustprogress nofree norecurse nosync nounwind memory(readwrite, inaccessiblemem: none) uwtable
define void @_ZN5folly14AsyncUDPSocket7fromMsgERNS0_12ReadCallback21OnDataAvailableParamsER6msghdr(ptr noundef nonnull align 8 captures(none) dereferenceable(65) %0, ptr noundef nonnull readonly align 8 captures(none) dereferenceable(56) %1) local_unnamed_addr #2 align 2 {
  %3 = getelementptr inbounds nuw i8, ptr %1, i64 40
  %4 = load i64, ptr %3, align 8, !tbaa !144
  %5 = icmp ult i64 %4, 16
  %6 = getelementptr inbounds nuw i8, ptr %1, i64 32
  %7 = load ptr, ptr %6, align 8
  %.not2325 = icmp eq ptr %7, null
  %.not23 = select i1 %5, i1 true, i1 %.not2325
  br i1 %.not23, label %select.unfold._crit_edge, label %.lr.ph

.lr.ph:                                           ; preds = %2
  %8 = getelementptr inbounds nuw i8, ptr %0, i64 64
  %9 = getelementptr inbounds nuw i8, ptr %0, i64 8
  %10 = getelementptr inbounds nuw i8, ptr %0, i64 56
  %.promoted = load i8, ptr %10, align 8
  br label %__cmsg_nxthdr.exit

__cmsg_nxthdr.exit:                               ; preds = %52, %.lr.ph
  %11 = phi i8 [ %.promoted, %.lr.ph ], [ %40, %52 ]
  %.024 = phi ptr [ %7, %.lr.ph ], [ %46, %52 ]
  %12 = getelementptr inbounds nuw i8, ptr %.024, i64 8
  %13 = load i32, ptr %12, align 8, !tbaa !34
  switch i32 %13, label %.thread [
    i32 17, label %14
    i32 1, label %22
    i32 0, label %29
    i32 41, label %33
  ]

14:                                               ; preds = %__cmsg_nxthdr.exit
  %15 = getelementptr inbounds nuw i8, ptr %.024, i64 12
  %16 = load i32, ptr %15, align 4, !tbaa !34
  %17 = icmp eq i32 %16, 104
  br i1 %17, label %18, label %.thread

18:                                               ; preds = %14
  %19 = getelementptr inbounds nuw i8, ptr %.024, i64 16
  %20 = load i16, ptr %19, align 2, !tbaa !197
  %21 = zext i16 %20 to i32
  store i32 %21, ptr %0, align 8, !tbaa !198
  br label %.thread

22:                                               ; preds = %__cmsg_nxthdr.exit
  %23 = getelementptr inbounds nuw i8, ptr %.024, i64 12
  %24 = load i32, ptr %23, align 4, !tbaa !34
  switch i32 %24, label %.thread [
    i32 37, label %25
    i32 35, label %25
  ]

25:                                               ; preds = %22, %22
  %26 = getelementptr inbounds nuw i8, ptr %.024, i64 16
  %27 = trunc nuw i8 %11 to i1
  tail call void @llvm.memmove.p0.p0.i64(ptr noundef nonnull align 8 dereferenceable(48) %9, ptr noundef nonnull align 8 dereferenceable(48) %26, i64 48, i1 false)
  br i1 %27, label %.thread, label %28

28:                                               ; preds = %25
  store i8 1, ptr %10, align 8, !tbaa !202
  br label %.thread

29:                                               ; preds = %__cmsg_nxthdr.exit
  %30 = getelementptr inbounds nuw i8, ptr %.024, i64 12
  %31 = load i32, ptr %30, align 4, !tbaa !34
  %32 = icmp eq i32 %31, 1
  br i1 %32, label %37, label %.thread

33:                                               ; preds = %__cmsg_nxthdr.exit
  %34 = getelementptr inbounds nuw i8, ptr %.024, i64 12
  %35 = load i32, ptr %34, align 4, !tbaa !34
  %36 = icmp eq i32 %35, 67
  br i1 %36, label %37, label %.thread

37:                                               ; preds = %33, %29
  %38 = getelementptr inbounds nuw i8, ptr %.024, i64 16
  %39 = load i8, ptr %38, align 8, !tbaa !33
  store i8 %39, ptr %8, align 8, !tbaa !203
  br label %.thread

.thread:                                          ; preds = %28, %25, %__cmsg_nxthdr.exit, %29, %22, %18, %14, %33, %37
  %40 = phi i8 [ %11, %__cmsg_nxthdr.exit ], [ %11, %29 ], [ %11, %22 ], [ %11, %18 ], [ %11, %14 ], [ %11, %33 ], [ %11, %37 ], [ 1, %25 ], [ 1, %28 ]
  %41 = load i64, ptr %.024, align 8, !tbaa !32
  %42 = icmp ult i64 %41, 16
  br i1 %42, label %select.unfold._crit_edge, label %43

43:                                               ; preds = %.thread
  %44 = add i64 %41, 7
  %45 = and i64 %44, -8
  %46 = getelementptr inbounds nuw i8, ptr %.024, i64 %45
  %47 = getelementptr inbounds nuw i8, ptr %46, i64 16
  %48 = load ptr, ptr %6, align 8, !tbaa !143
  %49 = load i64, ptr %3, align 8, !tbaa !144
  %50 = getelementptr inbounds nuw i8, ptr %48, i64 %49
  %51 = icmp ugt ptr %47, %50
  br i1 %51, label %select.unfold._crit_edge, label %52

52:                                               ; preds = %43
  %53 = load i64, ptr %46, align 8, !tbaa !32
  %54 = add i64 %53, 7
  %55 = and i64 %54, -8
  %56 = getelementptr inbounds nuw i8, ptr %46, i64 %55
  %57 = icmp ugt ptr %56, %50
  br i1 %57, label %select.unfold._crit_edge, label %__cmsg_nxthdr.exit, !llvm.loop !204

select.unfold._crit_edge:                         ; preds = %52, %43, %.thread, %2
  ret void
}